target datalayout = "e-m:e-p270:32:32-p271:32:32-p272:64:64-i64:64-i128:128-f80:128-n8:16:32:64-S128"
target triple = "x86_64-pc-linux-gnu"

%struct.FunctionCallInfoBaseData = type { ptr, ptr, ptr, i32, i8, i16, [0 x %struct.NullableDatum] }
%struct.NullableDatum = type { i64, i8 }
%struct.ReturnSetInfo = type { i32, ptr, ptr, i32, i32, i32, ptr, ptr }
%struct.LocalPgBackendStatus = type { %struct.PgBackendStatus, i32, i32, i32, i32, i8 }
%struct.PgBackendStatus = type { i32, i32, i32, i64, i64, i64, i64, i32, i32, %struct.SockAddr, ptr, i8, ptr, i8, ptr, i32, ptr, ptr, i32, i32, [20 x i64], i64 }
%struct.SockAddr = type { %struct.sockaddr_storage, i32 }
%struct.sockaddr_storage = type { i16, [118 x i8], i64 }

@.str = private unnamed_addr constant [7 x i8] c"VACUUM\00", align 1
@.str.1 = private unnamed_addr constant [8 x i8] c"ANALYZE\00", align 1
@.str.2 = private unnamed_addr constant [8 x i8] c"CLUSTER\00", align 1
@.str.3 = private unnamed_addr constant [13 x i8] c"CREATE INDEX\00", align 1
@.str.4 = private unnamed_addr constant [11 x i8] c"BASEBACKUP\00", align 1
@.str.5 = private unnamed_addr constant [5 x i8] c"COPY\00", align 1
@.str.6 = private unnamed_addr constant [27 x i8] c"invalid command name: \22%s\22\00", align 1
@.str.7 = private unnamed_addr constant [14 x i8] c"pgstatfuncs.c\00", align 1
@__func__.pg_stat_get_progress_info = private unnamed_addr constant [26 x i8] c"pg_stat_get_progress_info\00", align 1

; Function Attrs: inlinehint nounwind uwtable
define internal i64 @Int64GetDatum(i64 noundef %0) #2 {
  %2 = alloca i64, align 8
  store i64 %0, ptr %2, align 8
  %3 = load i64, ptr %2, align 8
  ret i64 %3
}

; Function Attrs: inlinehint nounwind uwtable
define internal i64 @ObjectIdGetDatum(i32 noundef %0) #2 {
  %2 = alloca i32, align 4
  store i32 %0, ptr %2, align 4
  %3 = load i32, ptr %2, align 4
  %4 = zext i32 %3 to i64
  ret i64 %4
}

; Function Attrs: inlinehint nounwind uwtable
define internal i64 @Int32GetDatum(i32 noundef %0) #2 {
  %2 = alloca i32, align 4
  store i32 %0, ptr %2, align 4
  %3 = load i32, ptr %2, align 4
  %4 = sext i32 %3 to i64
  ret i64 %4
}

; Function Attrs: inlinehint nounwind uwtable
define internal ptr @DatumGetPointer(i64 noundef %0) #2 {
  %2 = alloca i64, align 8
  store i64 %0, ptr %2, align 8
  %3 = load i64, ptr %2, align 8
  %4 = inttoptr i64 %3 to ptr
  ret ptr %4
}

; Function Attrs: nounwind uwtable
define dso_local i64 @pg_stat_get_progress_info(ptr noundef %0) #0 {
  %2 = alloca ptr, align 8
  %3 = alloca i32, align 4
  %4 = alloca i32, align 4
  %5 = alloca ptr, align 8
  %6 = alloca i32, align 4
  %7 = alloca ptr, align 8
  %8 = alloca ptr, align 8
  %9 = alloca ptr, align 8
  %10 = alloca [23 x i64], align 16
  %11 = alloca [23 x i8], align 16
  %12 = alloca i32, align 4
  %13 = alloca i32, align 4
  store ptr %0, ptr %2, align 8
  call void @llvm.lifetime.start.p0(i64 4, ptr %3) #10
  %14 = call i32 @pgstat_fetch_stat_numbackends()
  store i32 %14, ptr %3, align 4
  call void @llvm.lifetime.start.p0(i64 4, ptr %4) #10
  call void @llvm.lifetime.start.p0(i64 8, ptr %5) #10
  %15 = load ptr, ptr %2, align 8
  %16 = getelementptr inbounds nuw %struct.FunctionCallInfoBaseData, ptr %15, i32 0, i32 6
  %17 = getelementptr inbounds [0 x %struct.NullableDatum], ptr %16, i64 0, i64 0
  %18 = getelementptr inbounds nuw %struct.NullableDatum, ptr %17, i32 0, i32 0
  %19 = load i64, ptr %18, align 8
  %20 = call ptr @DatumGetPointer(i64 noundef %19)
  %21 = call ptr @pg_detoast_datum_packed(ptr noundef %20)
  %22 = call ptr @text_to_cstring(ptr noundef %21)
  store ptr %22, ptr %5, align 8
  call void @llvm.lifetime.start.p0(i64 4, ptr %6) #10
  call void @llvm.lifetime.start.p0(i64 8, ptr %7) #10
  %23 = load ptr, ptr %2, align 8
  %24 = getelementptr inbounds nuw %struct.FunctionCallInfoBaseData, ptr %23, i32 0, i32 2
  %25 = load ptr, ptr %24, align 8
  store ptr %25, ptr %7, align 8
  %26 = load ptr, ptr %5, align 8
  %27 = call i32 @pg_strcasecmp(ptr noundef %26, ptr noundef @.str)
  %28 = icmp eq i32 %27, 0
  br i1 %28, label %29, label %30

29:                                               ; preds = %1
  store i32 1, ptr %6, align 4
  br label %73

30:                                               ; preds = %1
  %31 = load ptr, ptr %5, align 8
  %32 = call i32 @pg_strcasecmp(ptr noundef %31, ptr noundef @.str.1)
  %33 = icmp eq i32 %32, 0
  br i1 %33, label %34, label %35

34:                                               ; preds = %30
  store i32 2, ptr %6, align 4
  br label %72

35:                                               ; preds = %30
  %36 = load ptr, ptr %5, align 8
  %37 = call i32 @pg_strcasecmp(ptr noundef %36, ptr noundef @.str.2)
  %38 = icmp eq i32 %37, 0
  br i1 %38, label %39, label %40

39:                                               ; preds = %35
  store i32 3, ptr %6, align 4
  br label %71

40:                                               ; preds = %35
  %41 = load ptr, ptr %5, align 8
  %42 = call i32 @pg_strcasecmp(ptr noundef %41, ptr noundef @.str.3)
  %43 = icmp eq i32 %42, 0
  br i1 %43, label %44, label %45

44:                                               ; preds = %40
  store i32 4, ptr %6, align 4
  br label %70

45:                                               ; preds = %40
  %46 = load ptr, ptr %5, align 8
  %47 = call i32 @pg_strcasecmp(ptr noundef %46, ptr noundef @.str.4)
  %48 = icmp eq i32 %47, 0
  br i1 %48, label %49, label %50

49:                                               ; preds = %45
  store i32 5, ptr %6, align 4
  br label %69

50:                                               ; preds = %45
  %51 = load ptr, ptr %5, align 8
  %52 = call i32 @pg_strcasecmp(ptr noundef %51, ptr noundef @.str.5)
  %53 = icmp eq i32 %52, 0
  br i1 %53, label %54, label %55

54:                                               ; preds = %50
  store i32 6, ptr %6, align 4
  br label %68

55:                                               ; preds = %50
  br label %56

56:                                               ; preds = %55
  br i1 true, label %57, label %59

57:                                               ; preds = %56
  %58 = call zeroext i1 @errstart_cold(i32 noundef 21, ptr noundef null) #11
  br i1 %58, label %61, label %65

59:                                               ; preds = %56
  %60 = call zeroext i1 @errstart(i32 noundef 21, ptr noundef null)
  br i1 %60, label %61, label %65

61:                                               ; preds = %59, %57
  %62 = call i32 @errcode(i32 noundef 50856066)
  %63 = load ptr, ptr %5, align 8
  %64 = call i32 (ptr, ...) @errmsg(ptr noundef @.str.6, ptr noundef %63)
  call void @errfinish(ptr noundef @.str.7, i32 noundef 280, ptr noundef @__func__.pg_stat_get_progress_info)
  br label %65

65:                                               ; preds = %61, %59, %57
  unreachable

66:                                               ; No predecessors!
  br label %67

67:                                               ; preds = %66
  br label %68

68:                                               ; preds = %67, %54
  br label %69

69:                                               ; preds = %68, %49
  br label %70

70:                                               ; preds = %69, %44
  br label %71

71:                                               ; preds = %70, %39
  br label %72

72:                                               ; preds = %71, %34
  br label %73

73:                                               ; preds = %72, %29
  %74 = load ptr, ptr %2, align 8
  call void @InitMaterializedSRF(ptr noundef %74, i32 noundef 0)
  store i32 1, ptr %4, align 4
  br label %75

75:                                               ; preds = %160, %73
  %76 = load i32, ptr %4, align 4
  %77 = load i32, ptr %3, align 4
  %78 = icmp sle i32 %76, %77
  br i1 %78, label %79, label %163

79:                                               ; preds = %75
  call void @llvm.lifetime.start.p0(i64 8, ptr %8) #10
  call void @llvm.lifetime.start.p0(i64 8, ptr %9) #10
  call void @llvm.lifetime.start.p0(i64 184, ptr %10) #10
  call void @llvm.memset.p0.i64(ptr align 16 %10, i8 0, i64 184, i1 false)
  call void @llvm.lifetime.start.p0(i64 23, ptr %11) #10
  call void @llvm.memset.p0.i64(ptr align 16 %11, i8 0, i64 23, i1 false)
  call void @llvm.lifetime.start.p0(i64 4, ptr %12) #10
  %80 = load i32, ptr %4, align 4
  %81 = call ptr @pgstat_get_local_beentry_by_index(i32 noundef %80)
  store ptr %81, ptr %8, align 8
  %82 = load ptr, ptr %8, align 8
  %83 = getelementptr inbounds nuw %struct.LocalPgBackendStatus, ptr %82, i32 0, i32 0
  store ptr %83, ptr %9, align 8
  %84 = load ptr, ptr %9, align 8
  %85 = getelementptr inbounds nuw %struct.PgBackendStatus, ptr %84, i32 0, i32 18
  %86 = load i32, ptr %85, align 8
  %87 = load i32, ptr %6, align 4
  %88 = icmp ne i32 %86, %87
  br i1 %88, label %89, label %90

89:                                               ; preds = %79
  store i32 6, ptr %13, align 4
  br label %157

90:                                               ; preds = %79
  %91 = load ptr, ptr %9, align 8
  %92 = getelementptr inbounds nuw %struct.PgBackendStatus, ptr %91, i32 0, i32 1
  %93 = load i32, ptr %92, align 4
  %94 = call i64 @Int32GetDatum(i32 noundef %93)
  %95 = getelementptr inbounds [23 x i64], ptr %10, i64 0, i64 0
  store i64 %94, ptr %95, align 16
  %96 = load ptr, ptr %9, align 8
  %97 = getelementptr inbounds nuw %struct.PgBackendStatus, ptr %96, i32 0, i32 7
  %98 = load i32, ptr %97, align 8
  %99 = call i64 @ObjectIdGetDatum(i32 noundef %98)
  %100 = getelementptr inbounds [23 x i64], ptr %10, i64 0, i64 1
  store i64 %99, ptr %100, align 8
  %101 = call i32 @GetUserId()
  %102 = call zeroext i1 @has_privs_of_role(i32 noundef %101, i32 noundef 3375)
  br i1 %102, label %109, label %103

103:                                              ; preds = %90
  %104 = call i32 @GetUserId()
  %105 = load ptr, ptr %9, align 8
  %106 = getelementptr inbounds nuw %struct.PgBackendStatus, ptr %105, i32 0, i32 8
  %107 = load i32, ptr %106, align 4
  %108 = call zeroext i1 @has_privs_of_role(i32 noundef %104, i32 noundef %107)
  br i1 %108, label %109, label %134

109:                                              ; preds = %103, %90
  %110 = load ptr, ptr %9, align 8
  %111 = getelementptr inbounds nuw %struct.PgBackendStatus, ptr %110, i32 0, i32 19
  %112 = load i32, ptr %111, align 4
  %113 = call i64 @ObjectIdGetDatum(i32 noundef %112)
  %114 = getelementptr inbounds [23 x i64], ptr %10, i64 0, i64 2
  store i64 %113, ptr %114, align 16
  store i32 0, ptr %12, align 4
  br label %115

115:                                              ; preds = %130, %109
  %116 = load i32, ptr %12, align 4
  %117 = icmp slt i32 %116, 20
  br i1 %117, label %118, label %133

118:                                              ; preds = %115
  %119 = load ptr, ptr %9, align 8
  %120 = getelementptr inbounds nuw %struct.PgBackendStatus, ptr %119, i32 0, i32 20
  %121 = load i32, ptr %12, align 4
  %122 = sext i32 %121 to i64
  %123 = getelementptr inbounds [20 x i64], ptr %120, i64 0, i64 %122
  %124 = load i64, ptr %123, align 8
  %125 = call i64 @Int64GetDatum(i64 noundef %124)
  %126 = load i32, ptr %12, align 4
  %127 = add i32 %126, 3
  %128 = sext i32 %127 to i64
  %129 = getelementptr inbounds [23 x i64], ptr %10, i64 0, i64 %128
  store i64 %125, ptr %129, align 8
  br label %130

130:                                              ; preds = %118
  %131 = load i32, ptr %12, align 4
  %132 = add i32 %131, 1
  store i32 %132, ptr %12, align 4
  br label %115, !llvm.loop !4

133:                                              ; preds = %115
  br label %148

134:                                              ; preds = %103
  %135 = getelementptr inbounds [23 x i8], ptr %11, i64 0, i64 2
  store i8 1, ptr %135, align 2
  store i32 0, ptr %12, align 4
  br label %136

136:                                              ; preds = %144, %134
  %137 = load i32, ptr %12, align 4
  %138 = icmp slt i32 %137, 20
  br i1 %138, label %139, label %147

139:                                              ; preds = %136
  %140 = load i32, ptr %12, align 4
  %141 = add i32 %140, 3
  %142 = sext i32 %141 to i64
  %143 = getelementptr inbounds [23 x i8], ptr %11, i64 0, i64 %142
  store i8 1, ptr %143, align 1
  br label %144

144:                                              ; preds = %139
  %145 = load i32, ptr %12, align 4
  %146 = add i32 %145, 1
  store i32 %146, ptr %12, align 4
  br label %136, !llvm.loop !6

147:                                              ; preds = %136
  br label %148

148:                                              ; preds = %147, %133
  %149 = load ptr, ptr %7, align 8
  %150 = getelementptr inbounds nuw %struct.ReturnSetInfo, ptr %149, i32 0, i32 6
  %151 = load ptr, ptr %150, align 8
  %152 = load ptr, ptr %7, align 8
  %153 = getelementptr inbounds nuw %struct.ReturnSetInfo, ptr %152, i32 0, i32 7
  %154 = load ptr, ptr %153, align 8
  %155 = getelementptr inbounds [23 x i64], ptr %10, i64 0, i64 0
  %156 = getelementptr inbounds [23 x i8], ptr %11, i64 0, i64 0
  call void @tuplestore_putvalues(ptr noundef %151, ptr noundef %154, ptr noundef %155, ptr noundef %156)
  store i32 0, ptr %13, align 4
  br label %157

157:                                              ; preds = %148, %89
  call void @llvm.lifetime.end.p0(i64 4, ptr %12) #10
  call void @llvm.lifetime.end.p0(i64 23, ptr %11) #10
  call void @llvm.lifetime.end.p0(i64 184, ptr %10) #10
  call void @llvm.lifetime.end.p0(i64 8, ptr %9) #10
  call void @llvm.lifetime.end.p0(i64 8, ptr %8) #10
  %158 = load i32, ptr %13, align 4
  switch i32 %158, label %164 [
    i32 0, label %159
    i32 6, label %160
  ]

159:                                              ; preds = %157
  br label %160

160:                                              ; preds = %159, %157
  %161 = load i32, ptr %4, align 4
  %162 = add i32 %161, 1
  store i32 %162, ptr %4, align 4
  br label %75, !llvm.loop !7

163:                                              ; preds = %75
  store i32 1, ptr %13, align 4
  call void @llvm.lifetime.end.p0(i64 8, ptr %7) #10
  call void @llvm.lifetime.end.p0(i64 4, ptr %6) #10
  call void @llvm.lifetime.end.p0(i64 8, ptr %5) #10
  call void @llvm.lifetime.end.p0(i64 4, ptr %4) #10
  call void @llvm.lifetime.end.p0(i64 4, ptr %3) #10
  ret i64 0

164:                                              ; preds = %157
  unreachable
}