; Function Attrs: nounwind uwtable
define dso_local noundef i64 @pg_stat_get_progress_info(ptr noundef %0) local_unnamed_addr #0 {
  %2 = alloca [23 x i64], align 16
  %3 = alloca [23 x i8], align 16
  %4 = tail call i32 @pgstat_fetch_stat_numbackends() #9
  %5 = getelementptr inbounds nuw i8, ptr %0, i64 32
  %6 = load i64, ptr %5, align 8
  %7 = inttoptr i64 %6 to ptr
  %8 = tail call ptr @pg_detoast_datum_packed(ptr noundef %7) #9
  %9 = tail call ptr @text_to_cstring(ptr noundef %8) #9
  %10 = getelementptr inbounds nuw i8, ptr %0, i64 16
  %11 = load ptr, ptr %10, align 8
  %12 = tail call i32 @pg_strcasecmp(ptr noundef %9, ptr noundef nonnull @.str) #9
  %13 = icmp eq i32 %12, 0
  br i1 %13, label %33, label %14

14:                                               ; preds = %1
  %15 = tail call i32 @pg_strcasecmp(ptr noundef %9, ptr noundef nonnull @.str.1) #9
  %16 = icmp eq i32 %15, 0
  br i1 %16, label %33, label %17

17:                                               ; preds = %14
  %18 = tail call i32 @pg_strcasecmp(ptr noundef %9, ptr noundef nonnull @.str.2) #9
  %19 = icmp eq i32 %18, 0
  br i1 %19, label %33, label %20

20:                                               ; preds = %17
  %21 = tail call i32 @pg_strcasecmp(ptr noundef %9, ptr noundef nonnull @.str.3) #9
  %22 = icmp eq i32 %21, 0
  br i1 %22, label %33, label %23

23:                                               ; preds = %20
  %24 = tail call i32 @pg_strcasecmp(ptr noundef %9, ptr noundef nonnull @.str.4) #9
  %25 = icmp eq i32 %24, 0
  br i1 %25, label %33, label %26

26:                                               ; preds = %23
  %27 = tail call i32 @pg_strcasecmp(ptr noundef %9, ptr noundef nonnull @.str.5) #9
  %28 = icmp eq i32 %27, 0
  br i1 %28, label %33, label %29

29:                                               ; preds = %26
  %30 = tail call zeroext i1 @errstart_cold(i32 noundef 21, ptr noundef null) #10
  tail call void @llvm.assume(i1 %30)
  %31 = tail call i32 @errcode(i32 noundef 50856066) #9
  %32 = tail call i32 (ptr, ...) @errmsg(ptr noundef nonnull @.str.6, ptr noundef %9) #9
  tail call void @errfinish(ptr noundef nonnull @.str.7, i32 noundef 280, ptr noundef nonnull @__func__.pg_stat_get_progress_info) #9
  unreachable

33:                                               ; preds = %26, %23, %20, %17, %14, %1
  %.031 = phi i32 [ 1, %1 ], [ 2, %14 ], [ 3, %17 ], [ 4, %20 ], [ 5, %23 ], [ 6, %26 ]
  tail call void @InitMaterializedSRF(ptr noundef nonnull %0, i32 noundef 0) #9
  %.not36 = icmp slt i32 %4, 1
  br i1 %.not36, label %._crit_edge, label %.lr.ph

.lr.ph:                                           ; preds = %33
  %34 = getelementptr inbounds nuw i8, ptr %2, i64 8
  %35 = getelementptr inbounds nuw i8, ptr %3, i64 2
  %36 = getelementptr inbounds nuw i8, ptr %2, i64 16
  %37 = getelementptr inbounds nuw i8, ptr %11, i64 40
  %38 = getelementptr inbounds nuw i8, ptr %11, i64 48
  br label %39

39:                                               ; preds = %.lr.ph, %69
  %.03037 = phi i32 [ 1, %.lr.ph ], [ %70, %69 ]
  call void @llvm.lifetime.start.p0(i64 184, ptr nonnull %2) #9
  call void @llvm.memset.p0.i64(ptr noundef nonnull align 16 dereferenceable(184) %2, i8 0, i64 184, i1 false)
  call void @llvm.lifetime.start.p0(i64 23, ptr nonnull %3) #9
  call void @llvm.memset.p0.i64(ptr noundef nonnull align 16 dereferenceable(23) %3, i8 0, i64 23, i1 false)
  %40 = call ptr @pgstat_get_local_beentry_by_index(i32 noundef %.03037) #9
  %41 = getelementptr inbounds nuw i8, ptr %40, i64 256
  %42 = load i32, ptr %41, align 8
  %.not32 = icmp eq i32 %42, %.031
  br i1 %.not32, label %43, label %69

43:                                               ; preds = %39
  %44 = getelementptr inbounds nuw i8, ptr %40, i64 4
  %45 = load i32, ptr %44, align 4
  %46 = sext i32 %45 to i64
  store i64 %46, ptr %2, align 16
  %47 = getelementptr inbounds nuw i8, ptr %40, i64 48
  %48 = load i32, ptr %47, align 8
  %49 = zext i32 %48 to i64
  store i64 %49, ptr %34, align 8
  %50 = call i32 @GetUserId() #9
  %51 = call zeroext i1 @has_privs_of_role(i32 noundef %50, i32 noundef 3375) #9
  br i1 %51, label %57, label %52

52:                                               ; preds = %43
  %53 = call i32 @GetUserId() #9
  %54 = getelementptr inbounds nuw i8, ptr %40, i64 52
  %55 = load i32, ptr %54, align 4
  %56 = call zeroext i1 @has_privs_of_role(i32 noundef %53, i32 noundef %55) #9
  br i1 %56, label %57, label %.loopexit.loopexit38

57:                                               ; preds = %52, %43
  %58 = getelementptr inbounds nuw i8, ptr %40, i64 260
  %59 = load i32, ptr %58, align 4
  %60 = zext i32 %59 to i64
  store i64 %60, ptr %36, align 16
  %61 = getelementptr inbounds nuw i8, ptr %40, i64 264
  br label %62

62:                                               ; preds = %57, %62
  %indvars.iv = phi i64 [ 0, %57 ], [ %indvars.iv.next, %62 ]
  %63 = getelementptr inbounds nuw [20 x i64], ptr %61, i64 0, i64 %indvars.iv
  %64 = load i64, ptr %63, align 8
  %65 = add nuw nsw i64 %indvars.iv, 3
  %66 = getelementptr inbounds nuw [23 x i64], ptr %2, i64 0, i64 %65
  store i64 %64, ptr %66, align 8
  %indvars.iv.next = add nuw nsw i64 %indvars.iv, 1
  %exitcond.not = icmp eq i64 %indvars.iv.next, 20
  br i1 %exitcond.not, label %.loopexit, label %62, !llvm.loop !4

.loopexit.loopexit38:                             ; preds = %52
  call void @llvm.memset.p0.i64(ptr noundef nonnull align 2 dereferenceable(21) %35, i8 1, i64 21, i1 false)
  br label %.loopexit

.loopexit:                                        ; preds = %62, %.loopexit.loopexit38
  %67 = load ptr, ptr %37, align 8
  %68 = load ptr, ptr %38, align 8
  call void @tuplestore_putvalues(ptr noundef %67, ptr noundef %68, ptr noundef nonnull %2, ptr noundef nonnull %3) #9
  br label %69

69:                                               ; preds = %39, %.loopexit
  call void @llvm.lifetime.end.p0(i64 23, ptr nonnull %3) #9
  call void @llvm.lifetime.end.p0(i64 184, ptr nonnull %2) #9
  %70 = add i32 %.03037, 1
  %.not = icmp sgt i32 %70, %4
  br i1 %.not, label %._crit_edge, label %39, !llvm.loop !6

._crit_edge:                                      ; preds = %69, %33
  ret i64 0
}